; Function Attrs: nofree norecurse nosync nounwind memory(argmem: readwrite) uwtable
define internal void @PredictorAdd12_C(ptr noundef readonly captures(none) %0, ptr noundef readonly captures(none) %1, i32 noundef %2, ptr noalias noundef captures(none) %3) #2 {
  %5 = icmp sgt i32 %2, 0
  br i1 %5, label %.lr.ph.preheader, label %._crit_edge

.lr.ph.preheader:                                 ; preds = %4
  %wide.trip.count = zext nneg i32 %2 to i64
  %scevgep = getelementptr i8, ptr %3, i64 -4
  %load_initial = load i32, ptr %scevgep, align 4
  br label %.lr.ph

.lr.ph:                                           ; preds = %.lr.ph.preheader, %.lr.ph
  %store_forwarded = phi i32 [ %load_initial, %.lr.ph.preheader ], [ %65, %.lr.ph ]
  %indvars.iv = phi i64 [ 0, %.lr.ph.preheader ], [ %indvars.iv.next, %.lr.ph ]
  %6 = getelementptr i32, ptr %3, i64 %indvars.iv
  %7 = getelementptr inbounds nuw i32, ptr %1, i64 %indvars.iv
  %8 = load i32, ptr %7, align 4, !tbaa !3
  %9 = getelementptr inbounds i8, ptr %7, i64 -4
  %10 = load i32, ptr %9, align 4, !tbaa !3
  %11 = lshr i32 %store_forwarded, 24
  %12 = lshr i32 %8, 24
  %13 = lshr i32 %10, 24
  %14 = add nuw nsw i32 %12, %11
  %15 = sub nsw i32 %14, %13
  %16 = icmp ult i32 %15, 256
  %17 = xor i32 %15, -1
  %18 = lshr i32 %17, 24
  %.0.i.i.i.i = select i1 %16, i32 %15, i32 %18
  %19 = lshr i32 %store_forwarded, 16
  %20 = and i32 %19, 255
  %21 = lshr i32 %8, 16
  %22 = and i32 %21, 255
  %23 = lshr i32 %10, 16
  %24 = and i32 %23, 255
  %25 = add nuw nsw i32 %22, %20
  %26 = sub nsw i32 %25, %24
  %27 = icmp ult i32 %26, 256
  %28 = xor i32 %26, -1
  %29 = lshr i32 %28, 24
  %.0.i.i16.i.i = select i1 %27, i32 %26, i32 %29
  %30 = lshr i32 %store_forwarded, 8
  %31 = and i32 %30, 255
  %32 = lshr i32 %8, 8
  %33 = and i32 %32, 255
  %34 = lshr i32 %10, 8
  %35 = and i32 %34, 255
  %36 = add nuw nsw i32 %33, %31
  %37 = sub nsw i32 %36, %35
  %38 = icmp ult i32 %37, 256
  %39 = xor i32 %37, -1
  %40 = lshr i32 %39, 24
  %.0.i.i17.i.i = select i1 %38, i32 %37, i32 %40
  %41 = and i32 %store_forwarded, 255
  %42 = and i32 %8, 255
  %43 = and i32 %10, 255
  %44 = add nuw nsw i32 %42, %41
  %45 = sub nsw i32 %44, %43
  %46 = icmp ult i32 %45, 256
  %47 = xor i32 %45, -1
  %48 = lshr i32 %47, 24
  %.0.i.i18.i.i = select i1 %46, i32 %45, i32 %48
  %49 = shl nuw i32 %.0.i.i.i.i, 24
  %50 = shl nuw nsw i32 %.0.i.i16.i.i, 16
  %51 = shl nuw nsw i32 %.0.i.i17.i.i, 8
  %52 = add nuw nsw i32 %49, %.0.i.i18.i.i
  %53 = add nuw nsw i32 %52, %50
  %54 = add nuw nsw i32 %53, %51
  %55 = getelementptr inbounds nuw i32, ptr %0, i64 %indvars.iv
  %56 = load i32, ptr %55, align 4, !tbaa !3
  %57 = and i32 %56, -16711936
  %58 = and i32 %54, -16711936
  %59 = add i32 %58, %57
  %60 = and i32 %56, 16711935
  %61 = and i32 %54, 16711935
  %62 = add nuw nsw i32 %61, %60
  %63 = and i32 %59, -16711936
  %64 = and i32 %62, 16711935
  %65 = or disjoint i32 %63, %64
  store i32 %65, ptr %6, align 4, !tbaa !3
  %indvars.iv.next = add nuw nsw i64 %indvars.iv, 1
  %exitcond.not = icmp eq i64 %indvars.iv.next, %wide.trip.count
  br i1 %exitcond.not, label %._crit_edge, label %.lr.ph, !llvm.loop !77

._crit_edge:                                      ; preds = %.lr.ph, %4
  ret void
}